target datalayout = "e-m:e-p270:32:32-p271:32:32-p272:64:64-i64:64-i128:128-f80:128-n8:16:32:64-S128"
target triple = "x86_64-pc-linux-gnu"

%struct.uv__queue = type { ptr, ptr }
%struct.uv_loop_s = type { ptr, i32, %struct.uv__queue, %union.anon.1, ptr, i32, i64, i32, %struct.uv__queue, %struct.uv__queue, ptr, i32, i32, %struct.uv__queue, %union.pthread_mutex_t, %struct.uv_async_s, %union.pthread_rwlock_t, ptr, %struct.uv__queue, %struct.uv__queue, %struct.uv__queue, %struct.uv__queue, %struct.uv__queue, ptr, %struct.uv__io_s, i32, %struct.anon, i64, i64, [2 x i32], %struct.uv__io_s, %struct.uv_signal_s, i32, %struct.uv__io_s, ptr, i32 }
%union.anon.1 = type { ptr }
%union.pthread_mutex_t = type { %struct.__pthread_mutex_s }
%struct.__pthread_mutex_s = type { i32, i32, i32, i32, i32, i16, i16, %struct.__pthread_internal_list }
%struct.__pthread_internal_list = type { ptr, ptr }
%struct.uv_async_s = type { ptr, ptr, i32, ptr, %struct.uv__queue, %union.anon, ptr, i32, ptr, %struct.uv__queue, i32 }
%union.anon = type { [4 x ptr] }
%union.pthread_rwlock_t = type { %struct.__pthread_rwlock_arch_t }
%struct.__pthread_rwlock_arch_t = type { i32, i32, i32, i32, i32, i32, i32, i32, i8, [7 x i8], i64, i32 }
%struct.anon = type { ptr, i32 }
%struct.uv_signal_s = type { ptr, ptr, i32, ptr, %struct.uv__queue, %union.anon.2, ptr, i32, ptr, i32, %struct.anon.3, i32, i32 }
%union.anon.2 = type { [4 x ptr] }
%struct.anon.3 = type { ptr, ptr, ptr, i32 }
%struct.uv__io_s = type { ptr, %struct.uv__queue, %struct.uv__queue, i32, i32, i32 }

@.str = private unnamed_addr constant [1 x i8] zeroinitializer, align 1
@uv__async_send.val = internal constant i64 1, align 8

; Function Attrs: nounwind uwtable
define internal void @uv__async_send(ptr noundef %0) #0 {
  %2 = alloca ptr, align 8
  %3 = alloca ptr, align 8
  %4 = alloca i64, align 8
  %5 = alloca i32, align 4
  %6 = alloca i32, align 4
  %7 = alloca i32, align 4
  store ptr %0, ptr %2, align 8
  call void @llvm.lifetime.start.p0(i64 8, ptr %3) #7
  call void @llvm.lifetime.start.p0(i64 8, ptr %4) #7
  call void @llvm.lifetime.start.p0(i64 4, ptr %5) #7
  call void @llvm.lifetime.start.p0(i64 4, ptr %6) #7
  store ptr @.str, ptr %3, align 8
  store i64 1, ptr %4, align 8
  %8 = load ptr, ptr %2, align 8
  %9 = getelementptr inbounds nuw %struct.uv_loop_s, ptr %8, i32 0, i32 25
  %10 = load i32, ptr %9, align 8
  store i32 %10, ptr %5, align 4
  %11 = load i32, ptr %5, align 4
  %12 = icmp eq i32 %11, -1
  br i1 %12, label %13, label %18

13:                                               ; preds = %1
  store ptr @uv__async_send.val, ptr %3, align 8
  store i64 8, ptr %4, align 8
  %14 = load ptr, ptr %2, align 8
  %15 = getelementptr inbounds nuw %struct.uv_loop_s, ptr %14, i32 0, i32 24
  %16 = getelementptr inbounds nuw %struct.uv__io_s, ptr %15, i32 0, i32 5
  %17 = load i32, ptr %16, align 8
  store i32 %17, ptr %5, align 4
  br label %18

18:                                               ; preds = %13, %1
  br label %19

19:                                               ; preds = %32, %18
  %20 = load i32, ptr %5, align 4
  %21 = load ptr, ptr %3, align 8
  %22 = load i64, ptr %4, align 8
  %23 = call i64 @write(i32 noundef %20, ptr noundef %21, i64 noundef %22)
  %24 = trunc i64 %23 to i32
  store i32 %24, ptr %6, align 4
  br label %25

25:                                               ; preds = %19
  %26 = load i32, ptr %6, align 4
  %27 = icmp eq i32 %26, -1
  br i1 %27, label %28, label %32

28:                                               ; preds = %25
  %29 = call ptr @__errno_location() #8
  %30 = load i32, ptr %29, align 4
  %31 = icmp eq i32 %30, 4
  br label %32

32:                                               ; preds = %28, %25
  %33 = phi i1 [ false, %25 ], [ %31, %28 ]
  br i1 %33, label %19, label %34

34:                                               ; preds = %32
  %35 = load i32, ptr %6, align 4
  %36 = sext i32 %35 to i64
  %37 = load i64, ptr %4, align 8
  %38 = icmp eq i64 %36, %37
  br i1 %38, label %39, label %40

39:                                               ; preds = %34
  store i32 1, ptr %7, align 4
  br label %54

40:                                               ; preds = %34
  %41 = load i32, ptr %6, align 4
  %42 = icmp eq i32 %41, -1
  br i1 %42, label %43, label %53

43:                                               ; preds = %40
  %44 = call ptr @__errno_location() #8
  %45 = load i32, ptr %44, align 4
  %46 = icmp eq i32 %45, 11
  br i1 %46, label %51, label %47

47:                                               ; preds = %43
  %48 = call ptr @__errno_location() #8
  %49 = load i32, ptr %48, align 4
  %50 = icmp eq i32 %49, 11
  br i1 %50, label %51, label %52

51:                                               ; preds = %47, %43
  store i32 1, ptr %7, align 4
  br label %54

52:                                               ; preds = %47
  br label %53

53:                                               ; preds = %52, %40
  call void @abort() #9
  unreachable

54:                                               ; preds = %51, %39
  call void @llvm.lifetime.end.p0(i64 4, ptr %6) #7
  call void @llvm.lifetime.end.p0(i64 4, ptr %5) #7
  call void @llvm.lifetime.end.p0(i64 8, ptr %4) #7
  call void @llvm.lifetime.end.p0(i64 8, ptr %3) #7
  ret void
}

; Function Attrs: nounwind uwtable
define dso_local i32 @uv_async_send(ptr noundef %0) #0 {
  %2 = alloca i32, align 4
  %3 = alloca ptr, align 8
  %4 = alloca ptr, align 8
  %5 = alloca ptr, align 8
  %6 = alloca i32, align 4
  %7 = alloca i32, align 4
  %8 = alloca i32, align 4
  %9 = alloca i32, align 4
  %10 = alloca i32, align 4
  %11 = alloca i32, align 4
  %12 = alloca i32, align 4
  %13 = alloca i32, align 4
  store ptr %0, ptr %3, align 8
  call void @llvm.lifetime.start.p0(i64 8, ptr %4) #7
  call void @llvm.lifetime.start.p0(i64 8, ptr %5) #7
  %14 = load ptr, ptr %3, align 8
  %15 = getelementptr inbounds nuw %struct.uv_async_s, ptr %14, i32 0, i32 10
  store ptr %15, ptr %4, align 8
  %16 = load ptr, ptr %3, align 8
  %17 = getelementptr inbounds nuw %struct.uv_async_s, ptr %16, i32 0, i32 5
  store ptr %17, ptr %5, align 8
  %18 = load ptr, ptr %4, align 8
  %19 = load atomic i32, ptr %18 monotonic, align 4
  store i32 %19, ptr %6, align 4
  %20 = load i32, ptr %6, align 4
  %21 = icmp ne i32 %20, 0
  br i1 %21, label %22, label %23

22:                                               ; preds = %1
  store i32 0, ptr %2, align 4
  store i32 1, ptr %7, align 4
  br label %40

23:                                               ; preds = %1
  %24 = load ptr, ptr %5, align 8
  store i32 1, ptr %8, align 4
  %25 = load i32, ptr %8, align 4
  %26 = atomicrmw add ptr %24, i32 %25 seq_cst, align 4
  store i32 %26, ptr %9, align 4
  %27 = load ptr, ptr %4, align 8
  store i32 1, ptr %10, align 4
  %28 = load i32, ptr %10, align 4
  %29 = atomicrmw xchg ptr %27, i32 %28 seq_cst, align 4
  store i32 %29, ptr %11, align 4
  %30 = load i32, ptr %11, align 4
  %31 = icmp eq i32 %30, 0
  br i1 %31, label %32, label %36

32:                                               ; preds = %23
  %33 = load ptr, ptr %3, align 8
  %34 = getelementptr inbounds nuw %struct.uv_async_s, ptr %33, i32 0, i32 1
  %35 = load ptr, ptr %34, align 8
  call void @uv__async_send(ptr noundef %35)
  br label %36

36:                                               ; preds = %32, %23
  %37 = load ptr, ptr %5, align 8
  store i32 -1, ptr %12, align 4
  %38 = load i32, ptr %12, align 4
  %39 = atomicrmw add ptr %37, i32 %38 seq_cst, align 4
  store i32 %39, ptr %13, align 4
  store i32 0, ptr %2, align 4
  store i32 1, ptr %7, align 4
  br label %40

40:                                               ; preds = %36, %22
  call void @llvm.lifetime.end.p0(i64 8, ptr %5) #7
  call void @llvm.lifetime.end.p0(i64 8, ptr %4) #7
  %41 = load i32, ptr %2, align 4
  ret i32 %41
}