; Function Attrs: nofree nounwind uwtable
define dso_local noundef i32 @uv_async_send(ptr noundef captures(none) %0) local_unnamed_addr #2 {
  %2 = getelementptr inbounds nuw i8, ptr %0, i64 120
  %3 = getelementptr inbounds nuw i8, ptr %0, i64 48
  %4 = load atomic i32, ptr %2 monotonic, align 4
  %.not = icmp eq i32 %4, 0
  br i1 %.not, label %5, label %29

5:                                                ; preds = %1
  %6 = atomicrmw add ptr %3, i32 1 seq_cst, align 4
  %7 = atomicrmw xchg ptr %2, i32 1 seq_cst, align 4
  %8 = icmp eq i32 %7, 0
  br i1 %8, label %9, label %uv__async_send.exit

9:                                                ; preds = %5
  %10 = getelementptr inbounds nuw i8, ptr %0, i64 8
  %11 = load ptr, ptr %10, align 8
  %12 = getelementptr inbounds nuw i8, ptr %11, i64 512
  %13 = load i32, ptr %12, align 8
  %14 = icmp eq i32 %13, -1
  br i1 %14, label %15, label %18

15:                                               ; preds = %9
  %16 = getelementptr inbounds nuw i8, ptr %11, i64 504
  %17 = load i32, ptr %16, align 8
  br label %18

18:                                               ; preds = %15, %9
  %.010.i = phi i64 [ 8, %15 ], [ 1, %9 ]
  %.09.i = phi i32 [ %17, %15 ], [ %13, %9 ]
  %.0.i = phi ptr [ @uv__async_send.val, %15 ], [ @.str, %9 ]
  br label %19

19:                                               ; preds = %23, %18
  %20 = tail call i64 @write(i32 noundef %.09.i, ptr noundef nonnull %.0.i, i64 noundef %.010.i) #8
  %21 = and i64 %20, 4294967295
  %22 = icmp eq i64 %21, 4294967295
  br i1 %22, label %23, label %.critedge.thread.i

23:                                               ; preds = %19
  %24 = tail call ptr @__errno_location() #9
  %25 = load i32, ptr %24, align 4
  switch i32 %25, label %.thread.i [
    i32 4, label %19
    i32 11, label %uv__async_send.exit
  ]

.critedge.thread.i:                               ; preds = %19
  %sext12.i = shl i64 %20, 32
  %26 = ashr exact i64 %sext12.i, 32
  %27 = icmp eq i64 %26, %.010.i
  br i1 %27, label %uv__async_send.exit, label %.thread.i

.thread.i:                                        ; preds = %23, %.critedge.thread.i
  tail call void @abort() #10
  unreachable

uv__async_send.exit:                              ; preds = %23, %.critedge.thread.i, %5
  %28 = atomicrmw add ptr %3, i32 -1 seq_cst, align 4
  br label %29

29:                                               ; preds = %1, %uv__async_send.exit
  ret i32 0
}